; Function Attrs: nounwind uwtable
define dso_local void @lzma_outq_end(ptr noundef captures(none) %0, ptr noundef %1) local_unnamed_addr #1 {
  %3 = load ptr, ptr %0, align 8, !tbaa !19
  %.not9 = icmp eq ptr %3, null
  br i1 %.not9, label %._crit_edge, label %.lr.ph

.lr.ph:                                           ; preds = %2
  %4 = getelementptr inbounds nuw i8, ptr %0, i64 8
  %5 = getelementptr inbounds nuw i8, ptr %0, i64 24
  %6 = getelementptr inbounds nuw i8, ptr %0, i64 52
  %7 = getelementptr inbounds nuw i8, ptr %0, i64 32
  %8 = getelementptr inbounds nuw i8, ptr %0, i64 48
  %9 = getelementptr inbounds nuw i8, ptr %0, i64 40
  br label %10

10:                                               ; preds = %.lr.ph, %move_head_to_cache.exit
  %11 = phi ptr [ %3, %.lr.ph ], [ %38, %move_head_to_cache.exit ]
  %12 = load ptr, ptr %11, align 8, !tbaa !12
  store ptr %12, ptr %0, align 8, !tbaa !19
  %13 = icmp eq ptr %12, null
  br i1 %13, label %14, label %15

14:                                               ; preds = %10
  store ptr null, ptr %4, align 8, !tbaa !20
  br label %15

15:                                               ; preds = %14, %10
  %16 = load ptr, ptr %5, align 8, !tbaa !4
  %.not.i = icmp eq ptr %16, null
  br i1 %.not.i, label %move_head_to_cache.exit, label %17

17:                                               ; preds = %15
  %18 = getelementptr inbounds nuw i8, ptr %16, i64 16
  %19 = load i64, ptr %18, align 8, !tbaa !14
  %20 = getelementptr inbounds nuw i8, ptr %11, i64 16
  %21 = load i64, ptr %20, align 8, !tbaa !14
  %.not17.i = icmp eq i64 %19, %21
  br i1 %.not17.i, label %move_head_to_cache.exit, label %.lr.ph.i.i

.lr.ph.i.i:                                       ; preds = %17, %.lr.ph.i.i
  %22 = phi ptr [ %30, %.lr.ph.i.i ], [ %16, %17 ]
  %23 = load ptr, ptr %22, align 8, !tbaa !12
  store ptr %23, ptr %5, align 8, !tbaa !4
  %24 = load i32, ptr %6, align 4, !tbaa !13
  %25 = add i32 %24, -1
  store i32 %25, ptr %6, align 4, !tbaa !13
  %26 = getelementptr inbounds nuw i8, ptr %22, i64 16
  %27 = load i64, ptr %26, align 8, !tbaa !14
  %28 = load i64, ptr %7, align 8, !tbaa !15
  %reass.sub = sub i64 %28, %27
  %29 = add i64 %reass.sub, -64
  store i64 %29, ptr %7, align 8, !tbaa !15
  tail call void @lzma_free(ptr noundef nonnull %22, ptr noundef %1) #6
  %30 = load ptr, ptr %5, align 8, !tbaa !4
  %.not.i.i = icmp eq ptr %30, null
  br i1 %.not.i.i, label %move_head_to_cache.exit, label %.lr.ph.i.i, !llvm.loop !16

move_head_to_cache.exit:                          ; preds = %.lr.ph.i.i, %15, %17
  %31 = phi ptr [ %16, %17 ], [ null, %15 ], [ null, %.lr.ph.i.i ]
  store ptr %31, ptr %11, align 8, !tbaa !12
  store ptr %11, ptr %5, align 8, !tbaa !4
  %32 = load i32, ptr %8, align 8, !tbaa !21
  %33 = add i32 %32, -1
  store i32 %33, ptr %8, align 8, !tbaa !21
  %34 = getelementptr inbounds nuw i8, ptr %11, i64 16
  %35 = load i64, ptr %34, align 8, !tbaa !14
  %36 = load i64, ptr %9, align 8, !tbaa !22
  %reass.sub10 = sub i64 %36, %35
  %37 = add i64 %reass.sub10, -64
  store i64 %37, ptr %9, align 8, !tbaa !22
  %38 = load ptr, ptr %0, align 8, !tbaa !19
  %.not = icmp eq ptr %38, null
  br i1 %.not, label %.lr.ph.i, label %10, !llvm.loop !27

._crit_edge:                                      ; preds = %2
  %.phi.trans.insert = getelementptr inbounds nuw i8, ptr %0, i64 24
  %.pre = load ptr, ptr %.phi.trans.insert, align 8, !tbaa !4
  %.not3.i = icmp eq ptr %.pre, null
  br i1 %.not3.i, label %lzma_outq_clear_cache.exit, label %.lr.ph.i

.lr.ph.i:                                         ; preds = %move_head_to_cache.exit, %._crit_edge
  %39 = phi ptr [ %.pre, %._crit_edge ], [ %11, %move_head_to_cache.exit ]
  %40 = getelementptr inbounds nuw i8, ptr %0, i64 24
  %41 = getelementptr inbounds nuw i8, ptr %0, i64 52
  %42 = getelementptr inbounds nuw i8, ptr %0, i64 32
  br label %43

43:                                               ; preds = %43, %.lr.ph.i
  %44 = phi ptr [ %39, %.lr.ph.i ], [ %52, %43 ]
  %45 = load ptr, ptr %44, align 8, !tbaa !12
  store ptr %45, ptr %40, align 8, !tbaa !4
  %46 = load i32, ptr %41, align 4, !tbaa !13
  %47 = add i32 %46, -1
  store i32 %47, ptr %41, align 4, !tbaa !13
  %48 = getelementptr inbounds nuw i8, ptr %44, i64 16
  %49 = load i64, ptr %48, align 8, !tbaa !14
  %50 = load i64, ptr %42, align 8, !tbaa !15
  %reass.sub11 = sub i64 %50, %49
  %51 = add i64 %reass.sub11, -64
  store i64 %51, ptr %42, align 8, !tbaa !15
  tail call void @lzma_free(ptr noundef nonnull %44, ptr noundef %1) #6
  %52 = load ptr, ptr %40, align 8, !tbaa !4
  %.not.i6 = icmp eq ptr %52, null
  br i1 %.not.i6, label %lzma_outq_clear_cache.exit, label %43, !llvm.loop !16

lzma_outq_clear_cache.exit:                       ; preds = %43, %._crit_edge
  ret void
}